; ModuleID = '3/2138.c'
source_filename = "3/2138.c"
target datalayout = "e-m:e-p270:32:32-p271:32:32-p272:64:64-i64:64-f80:128-n8:16:32:64-S128"
target triple = "x86_64-pc-linux-gnu"

@.str = private unnamed_addr constant [5 x i8] c"%d%d\00", align 1
@.str.1 = private unnamed_addr constant [3 x i8] c"%d\00", align 1
@.str.2 = private unnamed_addr constant [4 x i8] c"yes\00", align 1
@.str.3 = private unnamed_addr constant [3 x i8] c"no\00", align 1

; Function Attrs: noinline nounwind uwtable
define dso_local i32 @main() #0 {
  %1 = alloca i32, align 4
  %2 = alloca i32, align 4
  %3 = alloca i32, align 4
  %4 = alloca i32, align 4
  %5 = alloca i32, align 4
  %6 = alloca i32, align 4
  %7 = alloca [1000 x i32], align 16
  store i32 0, i32* %1, align 4
  %8 = call i32 (i8*, ...) @__isoc99_scanf(i8* getelementptr inbounds ([5 x i8], [5 x i8]* @.str, i64 0, i64 0), i32* %2, i32* %3)
  store i32 0, i32* %6, align 4
  store i32 0, i32* %4, align 4
  br label %9

9:                                                ; preds = %19, %0
  %10 = load i32, i32* %4, align 4
  %11 = load i32, i32* %2, align 4
  %12 = sub nsw i32 %11, 1
  %13 = icmp sle i32 %10, %12
  br i1 %13, label %14, label %22

14:                                               ; preds = %9
  %15 = load i32, i32* %4, align 4
  %16 = sext i32 %15 to i64
  %17 = getelementptr inbounds [1000 x i32], [1000 x i32]* %7, i64 0, i64 %16
  %18 = call i32 (i8*, ...) @__isoc99_scanf(i8* getelementptr inbounds ([3 x i8], [3 x i8]* @.str.1, i64 0, i64 0), i32* %17)
  br label %19

19:                                               ; preds = %14
  %20 = load i32, i32* %4, align 4
  %21 = add nsw i32 %20, 1
  store i32 %21, i32* %4, align 4
  br label %9

22:                                               ; preds = %9
  store i32 0, i32* %4, align 4
  br label %23

23:                                               ; preds = %58, %22
  %24 = load i32, i32* %4, align 4
  %25 = load i32, i32* %2, align 4
  %26 = sub nsw i32 %25, 1
  %27 = icmp sle i32 %24, %26
  br i1 %27, label %28, label %61

28:                                               ; preds = %23
  %29 = load i32, i32* %4, align 4
  %30 = add nsw i32 %29, 1
  store i32 %30, i32* %5, align 4
  br label %31

31:                                               ; preds = %50, %28
  %32 = load i32, i32* %5, align 4
  %33 = load i32, i32* %2, align 4
  %34 = sub nsw i32 %33, 1
  %35 = icmp sle i32 %32, %34
  br i1 %35, label %36, label %53

36:                                               ; preds = %31
  %37 = load i32, i32* %4, align 4
  %38 = sext i32 %37 to i64
  %39 = getelementptr inbounds [1000 x i32], [1000 x i32]* %7, i64 0, i64 %38
  %40 = load i32, i32* %39, align 4
  %41 = load i32, i32* %5, align 4
  %42 = sext i32 %41 to i64
  %43 = getelementptr inbounds [1000 x i32], [1000 x i32]* %7, i64 0, i64 %42
  %44 = load i32, i32* %43, align 4
  %45 = add nsw i32 %40, %44
  %46 = load i32, i32* %3, align 4
  %47 = icmp eq i32 %45, %46
  br i1 %47, label %48, label %49

48:                                               ; preds = %36
  store i32 1, i32* %6, align 4
  br label %53

49:                                               ; preds = %36
  br label %50

50:                                               ; preds = %49
  %51 = load i32, i32* %5, align 4
  %52 = add nsw i32 %51, 1
  store i32 %52, i32* %5, align 4
  br label %31

53:                                               ; preds = %48, %31
  %54 = load i32, i32* %6, align 4
  %55 = icmp eq i32 %54, 1
  br i1 %55, label %56, label %57

56:                                               ; preds = %53
  br label %61

57:                                               ; preds = %53
  br label %58

58:                                               ; preds = %57
  %59 = load i32, i32* %4, align 4
  %60 = add nsw i32 %59, 1
  store i32 %60, i32* %4, align 4
  br label %23

61:                                               ; preds = %56, %23
  %62 = load i32, i32* %6, align 4
  %63 = icmp eq i32 %62, 1
  br i1 %63, label %64, label %66

64:                                               ; preds = %61
  %65 = call i32 (i8*, ...) @printf(i8* getelementptr inbounds ([4 x i8], [4 x i8]* @.str.2, i64 0, i64 0))
  br label %68

66:                                               ; preds = %61
  %67 = call i32 (i8*, ...) @printf(i8* getelementptr inbounds ([3 x i8], [3 x i8]* @.str.3, i64 0, i64 0))
  br label %68

68:                                               ; preds = %66, %64
  ret i32 0
}

declare dso_local i32 @__isoc99_scanf(i8*, ...) #1

declare dso_local i32 @printf(i8*, ...) #1


!llvm.module.flags = !{!0}
!llvm.ident = !{!1}

!0 = !{i32 1, !"wchar_size", i32 4}
!1 = !{!"clang version 10.0.0-4ubuntu1 "}
